Certificate:
    Data:
        Version: 3 (0x2)
        Serial Number: 984090417 (0x3aa80731)
        Signature Algorithm: sha256WithRSAEncryption
        Issuer: C = PortSwigger, ST = PortSwigger, L = PortSwigger, O = PortSwigger, OU = PortSwigger CA, CN = PortSwigger CA
        Validity
            Not Before: Jun 15 15:49:15 2014 GMT
            Not After : Jun 15 15:49:15 2032 GMT
        Subject: C = PortSwigger, ST = PortSwigger, L = PortSwigger, O = PortSwigger, OU = PortSwigger CA, CN = PortSwigger CA
        Subject Public Key Info:
            Public Key Algorithm: rsaEncryption
                RSA Public-Key: (2048 bit)
                Modulus:
                    00:ae:1e:ad:94:2e:ef:d2:e1:97:0e:ce:3a:7e:54:
                    40:44:48:1d:ee:d7:2b:00:89:ff:08:b2:7b:e5:3a:
                    1c:44:8b:a0:d1:c1:d8:91:29:02:33:d9:08:a1:b9:
                    36:aa:e7:3b:c5:4b:44:a8:cd:bf:75:53:2f:6d:8c:
                    6b:97:cb:71:20:38:2a:db:02:2c:c1:85:bb:de:29:
                    e5:bd:43:98:d4:be:e5:ad:70:de:98:de:28:f9:4a:
                    d6:89:9d:00:a1:91:cc:87:af:ba:8d:6a:7b:b4:10:
                    24:6a:ae:14:33:24:75:79:43:d8:e3:cb:81:7b:b7:
                    68:48:1e:ca:37:52:27:23:9a:35:fd:66:10:0c:ab:
                    9e:eb:2b:e6:80:2f:59:9b:9c:49:65:e7:e7:40:00:
                    0f:b1:93:64:15:c4:73:9d:31:b4:17:67:ec:84:e7:
                    8c:fa:4d:2c:84:20:1c:5a:20:5d:a1:7b:1f:ac:8b:
                    0d:07:2b:bc:2b:5a:0a:4a:a7:b9:07:a3:51:7a:43:
                    f5:c5:a8:b3:00:ab:3a:74:c3:5c:52:a5:b8:cc:3c:
                    53:23:37:90:14:9a:f1:2a:09:40:b7:7a:fc:aa:55:
                    83:a9:3f:8e:35:b0:64:cc:39:a7:82:21:a4:df:0d:
                    61:fd:59:7e:02:8d:ae:38:88:ce:c4:76:4f:64:77:
                    09:bf
                Exponent: 65537 (0x10001)
        X509v3 extensions:
            X509v3 Basic Constraints: critical
                CA:TRUE
    Signature Algorithm: sha256WithRSAEncryption
         6e:a9:1b:c6:e0:67:b9:f7:59:79:ec:3b:4d:43:41:20:5b:1d:
         56:82:4d:f6:32:2d:75:fe:11:af:c3:d4:ec:ff:09:d6:38:8b:
         42:7c:a5:2f:70:21:bf:22:50:7f:10:ba:f7:75:c1:a3:c0:6f:
         b0:23:89:5b:f6:93:56:8c:d6:f2:be:d1:48:68:22:7a:29:b7:
         b8:50:c4:2e:9f:cb:7f:96:6f:a1:c0:33:dd:73:b5:e2:93:1f:
         b9:41:ce:cb:58:d6:71:97:79:c4:07:18:b8:92:aa:5d:ac:66:
         7b:49:63:f7:87:5a:c0:10:66:f0:2b:e2:52:72:4b:5f:03:3f:
         5a:46:84:d7:d5:d7:23:99:36:78:3d:82:f7:67:01:d9:1c:08:
         78:6a:fb:be:16:ab:0a:aa:c2:93:ac:13:28:d2:43:97:d4:11:
         64:a7:01:e1:96:c3:34:da:48:b2:ec:0e:63:4b:b6:80:20:3d:
         ad:92:a5:7c:da:ec:f2:fe:9e:d4:08:ae:7c:1d:33:3a:22:4c:
         25:78:26:02:ad:bc:5d:71:95:b6:54:bb:ad:51:cf:2f:19:83:
         fe:bc:18:70:65:8c:f3:a9:f6:f4:a2:81:18:de:89:0e:0d:19:
         ef:2d:4b:8f:5b:f1:4e:a5:24:84:59:da:3a:78:f8:0a:80:90:
         67:d7:ba:c7
-----BEGIN CERTIFICATE-----
MIIDpzCCAo+gAwIBAgIEOqgHMTANBgkqhkiG9w0BAQsFADCBijEUMBIGA1UEBhML
UG9ydFN3aWdnZXIxFDASBgNVBAgTC1BvcnRTd2lnZ2VyMRQwEgYDVQQHEwtQb3J0
U3dpZ2dlcjEUMBIGA1UEChMLUG9ydFN3aWdnZXIxFzAVBgNVBAsTDlBvcnRTd2ln
Z2VyIENBMRcwFQYDVQQDEw5Qb3J0U3dpZ2dlciBDQTAeFw0xNDA2MTUxNTQ5MTVa
Fw0zMjA2MTUxNTQ5MTVaMIGKMRQwEgYDVQQGEwtQb3J0U3dpZ2dlcjEUMBIGA1UE
CBMLUG9ydFN3aWdnZXIxFDASBgNVBAcTC1BvcnRTd2lnZ2VyMRQwEgYDVQQKEwtQ
b3J0U3dpZ2dlcjEXMBUGA1UECxMOUG9ydFN3aWdnZXIgQ0ExFzAVBgNVBAMTDlBv
cnRTd2lnZ2VyIENBMIIBIjANBgkqhkiG9w0BAQEFAAOCAQ8AMIIBCgKCAQEArh6t
lC7v0uGXDs46flRAREgd7tcrAIn/CLJ75TocRIug0cHYkSkCM9kIobk2quc7xUtE
qM2/dVMvbYxrl8txIDgq2wIswYW73inlvUOY1L7lrXDemN4o+UrWiZ0AoZHMh6+6
jWp7tBAkaq4UMyR1eUPY48uBe7doSB7KN1InI5o1/WYQDKue6yvmgC9Zm5xJZefn
QAAPsZNkFcRznTG0F2fshOeM+k0shCAcWiBdoXsfrIsNByu8K1oKSqe5B6NRekP1
xaizAKs6dMNcUqW4zDxTIzeQFJrxKglAt3r8qlWDqT+ONbBkzDmngiGk3w1h/Vl+
Ao2uOIjOxHZPZHcJvwIDAQABoxMwETAPBgNVHRMBAf8EBTADAQH/MA0GCSqGSIb3
DQEBCwUAA4IBAQBuqRvG4Ge591l57DtNQ0EgWx1Wgk32Mi11/hGvw9Ts/wnWOItC
fKUvcCG/IlB/ELr3dcGjwG+wI4lb9pNWjNbyvtFIaCJ6Kbe4UMQun8t/lm+hwDPd
c7Xikx+5Qc7LWNZxl3nEBxi4kqpdrGZ7SWP3h1rAEGbwK+JScktfAz9aRoTX1dcj
mTZ4PYL3ZwHZHAh4avu+FqsKqsKTrBMo0kOX1BFkpwHhlsM02kiy7A5jS7aAID2t
kqV82uzy/p7UCK58HTM6IkwleCYCrbxdcZW2VLutUc8vGYP+vBhwZYzzqfb0ooEY
3okODRnvLUuPW/FOpSSEWdo6ePgKgJBn17rH
-----END CERTIFICATE-----
